target datalayout = "e-m:e-p270:32:32-p271:32:32-p272:64:64-i64:64-i128:128-f80:128-n8:16:32:64-S128"
target triple = "x86_64-pc-linux-gnu"

%struct.GCtab = type { %struct.GCRef, i8, i8, i8, i8, %struct.MRef, %struct.GCRef, %struct.GCRef, %struct.MRef, i32, i32, %struct.MRef }
%struct.GCRef = type { i64 }
%struct.MRef = type { i64 }
%struct.Node = type { %union.TValue, %union.TValue, %struct.MRef }
%union.TValue = type { i64 }
%struct.anon.0 = type { i32, i32 }

; Function Attrs: alwaysinline nounwind uwtable
define internal ptr @hashmask(ptr noundef %0, i32 noundef %1) #2 {
  %3 = alloca ptr, align 8
  %4 = alloca i32, align 4
  %5 = alloca ptr, align 8
  store ptr %0, ptr %3, align 8, !tbaa !11
  store i32 %1, ptr %4, align 4, !tbaa !9
  call void @llvm.lifetime.start.p0(i64 8, ptr %5) #9
  %6 = load ptr, ptr %3, align 8, !tbaa !11
  %7 = getelementptr inbounds nuw %struct.GCtab, ptr %6, i32 0, i32 8
  %8 = getelementptr inbounds nuw %struct.MRef, ptr %7, i32 0, i32 0
  %9 = load i64, ptr %8, align 8, !tbaa !29
  %10 = inttoptr i64 %9 to ptr
  store ptr %10, ptr %5, align 8, !tbaa !27
  %11 = load ptr, ptr %5, align 8, !tbaa !27
  %12 = load i32, ptr %4, align 4, !tbaa !9
  %13 = load ptr, ptr %3, align 8, !tbaa !11
  %14 = getelementptr inbounds nuw %struct.GCtab, ptr %13, i32 0, i32 10
  %15 = load i32, ptr %14, align 4, !tbaa !13
  %16 = and i32 %12, %15
  %17 = zext i32 %16 to i64
  %18 = getelementptr inbounds nuw %struct.Node, ptr %11, i64 %17
  call void @llvm.lifetime.end.p0(i64 8, ptr %5) #9
  ret ptr %18
}

; Function Attrs: alwaysinline nounwind uwtable
define internal i32 @hashrot(i32 noundef %0, i32 noundef %1) #2 {
  %3 = alloca i32, align 4
  %4 = alloca i32, align 4
  store i32 %0, ptr %3, align 4, !tbaa !9
  store i32 %1, ptr %4, align 4, !tbaa !9
  %5 = load i32, ptr %4, align 4, !tbaa !9
  %6 = load i32, ptr %3, align 4, !tbaa !9
  %7 = xor i32 %6, %5
  store i32 %7, ptr %3, align 4, !tbaa !9
  %8 = load i32, ptr %4, align 4, !tbaa !9
  %9 = shl i32 %8, 14
  %10 = load i32, ptr %4, align 4, !tbaa !9
  %11 = lshr i32 %10, 18
  %12 = or i32 %9, %11
  store i32 %12, ptr %4, align 4, !tbaa !9
  %13 = load i32, ptr %4, align 4, !tbaa !9
  %14 = load i32, ptr %3, align 4, !tbaa !9
  %15 = sub i32 %14, %13
  store i32 %15, ptr %3, align 4, !tbaa !9
  %16 = load i32, ptr %4, align 4, !tbaa !9
  %17 = shl i32 %16, 5
  %18 = load i32, ptr %4, align 4, !tbaa !9
  %19 = lshr i32 %18, 27
  %20 = or i32 %17, %19
  store i32 %20, ptr %4, align 4, !tbaa !9
  %21 = load i32, ptr %3, align 4, !tbaa !9
  %22 = load i32, ptr %4, align 4, !tbaa !9
  %23 = xor i32 %22, %21
  store i32 %23, ptr %4, align 4, !tbaa !9
  %24 = load i32, ptr %3, align 4, !tbaa !9
  %25 = shl i32 %24, 13
  %26 = load i32, ptr %3, align 4, !tbaa !9
  %27 = lshr i32 %26, 19
  %28 = or i32 %25, %27
  %29 = load i32, ptr %4, align 4, !tbaa !9
  %30 = sub i32 %29, %28
  store i32 %30, ptr %4, align 4, !tbaa !9
  %31 = load i32, ptr %4, align 4, !tbaa !9
  ret i32 %31
}

; Function Attrs: nounwind uwtable
define hidden ptr @lj_tab_setinth(ptr noundef %0, ptr noundef %1, i32 noundef %2) #0 {
  %4 = alloca ptr, align 8
  %5 = alloca ptr, align 8
  %6 = alloca ptr, align 8
  %7 = alloca i32, align 4
  %8 = alloca %union.TValue, align 8
  %9 = alloca ptr, align 8
  %10 = alloca i32, align 4
  store ptr %0, ptr %5, align 8, !tbaa !4
  store ptr %1, ptr %6, align 8, !tbaa !11
  store i32 %2, ptr %7, align 4, !tbaa !9
  call void @llvm.lifetime.start.p0(i64 8, ptr %8) #9
  call void @llvm.lifetime.start.p0(i64 8, ptr %9) #9
  %11 = load i32, ptr %7, align 4, !tbaa !9
  %12 = sitofp i32 %11 to double
  store double %12, ptr %8, align 8, !tbaa !32
  %13 = load ptr, ptr %6, align 8, !tbaa !11
  %14 = getelementptr inbounds nuw %struct.anon.0, ptr %8, i32 0, i32 0
  %15 = load i32, ptr %14, align 8, !tbaa !32
  %16 = getelementptr inbounds nuw %struct.anon.0, ptr %8, i32 0, i32 1
  %17 = load i32, ptr %16, align 4, !tbaa !32
  %18 = shl i32 %17, 1
  %19 = call i32 @hashrot(i32 noundef %15, i32 noundef %18)
  %20 = call ptr @hashmask(ptr noundef %13, i32 noundef %19)
  store ptr %20, ptr %9, align 8, !tbaa !27
  br label %21

21:                                               ; preds = %38, %3
  %22 = load ptr, ptr %9, align 8, !tbaa !27
  %23 = getelementptr inbounds nuw %struct.Node, ptr %22, i32 0, i32 1
  %24 = load i64, ptr %23, align 8, !tbaa !32
  %25 = ashr i64 %24, 47
  %26 = trunc i64 %25 to i32
  %27 = icmp ult i32 %26, -14
  br i1 %27, label %28, label %37

28:                                               ; preds = %21
  %29 = load ptr, ptr %9, align 8, !tbaa !27
  %30 = getelementptr inbounds nuw %struct.Node, ptr %29, i32 0, i32 1
  %31 = load double, ptr %30, align 8, !tbaa !32
  %32 = load double, ptr %8, align 8, !tbaa !32
  %33 = fcmp oeq double %31, %32
  br i1 %33, label %34, label %37

34:                                               ; preds = %28
  %35 = load ptr, ptr %9, align 8, !tbaa !27
  %36 = getelementptr inbounds nuw %struct.Node, ptr %35, i32 0, i32 0
  store ptr %36, ptr %4, align 8
  store i32 1, ptr %10, align 4
  br label %49

37:                                               ; preds = %28, %21
  br label %38

38:                                               ; preds = %37
  %39 = load ptr, ptr %9, align 8, !tbaa !27
  %40 = getelementptr inbounds nuw %struct.Node, ptr %39, i32 0, i32 2
  %41 = getelementptr inbounds nuw %struct.MRef, ptr %40, i32 0, i32 0
  %42 = load i64, ptr %41, align 8, !tbaa !35
  %43 = inttoptr i64 %42 to ptr
  store ptr %43, ptr %9, align 8, !tbaa !27
  %44 = icmp ne ptr %43, null
  br i1 %44, label %21, label %45, !llvm.loop !61

45:                                               ; preds = %38
  %46 = load ptr, ptr %5, align 8, !tbaa !4
  %47 = load ptr, ptr %6, align 8, !tbaa !11
  %48 = call ptr @lj_tab_newkey(ptr noundef %46, ptr noundef %47, ptr noundef %8)
  store ptr %48, ptr %4, align 8
  store i32 1, ptr %10, align 4
  br label %49

49:                                               ; preds = %45, %34
  call void @llvm.lifetime.end.p0(i64 8, ptr %9) #9
  call void @llvm.lifetime.end.p0(i64 8, ptr %8) #9
  %50 = load ptr, ptr %4, align 8
  ret ptr %50
}