; Function Attrs: nounwind uwtable
define hidden ptr @lj_tab_setinth(ptr noundef %0, ptr noundef %1, i32 noundef %2) local_unnamed_addr #0 {
  %4 = alloca %union.TValue, align 8
  call void @llvm.lifetime.start.p0(i64 8, ptr nonnull %4) #11
  %5 = sitofp i32 %2 to double
  store double %5, ptr %4, align 8, !tbaa !13
  %6 = bitcast double %5 to i64
  %7 = trunc i64 %6 to i32
  %sh.diff = lshr i64 %6, 31
  %tr.sh.diff = trunc i64 %sh.diff to i32
  %8 = and i32 %tr.sh.diff, -2
  %9 = xor i32 %8, %7
  %10 = tail call i32 @llvm.fshl.i32(i32 %8, i32 %8, i32 14)
  %11 = sub i32 %9, %10
  %12 = tail call i32 @llvm.fshl.i32(i32 %10, i32 %10, i32 5)
  %13 = xor i32 %12, %11
  %14 = tail call i32 @llvm.fshl.i32(i32 %11, i32 %11, i32 13)
  %15 = sub i32 %13, %14
  %16 = getelementptr inbounds nuw i8, ptr %1, i64 40
  %17 = load i64, ptr %16, align 8, !tbaa !15
  %18 = inttoptr i64 %17 to ptr
  %19 = getelementptr inbounds nuw i8, ptr %1, i64 52
  %20 = load i32, ptr %19, align 4, !tbaa !14
  %21 = and i32 %15, %20
  %22 = zext i32 %21 to i64
  %23 = getelementptr inbounds nuw %struct.Node, ptr %18, i64 %22
  br label %24

24:                                               ; preds = %30, %3
  %.0 = phi ptr [ %23, %3 ], [ %33, %30 ]
  %25 = getelementptr inbounds nuw i8, ptr %.0, i64 8
  %26 = load i64, ptr %25, align 8
  %27 = icmp ult i64 %26, -1970324836974592
  %28 = bitcast i64 %26 to double
  %29 = fcmp oeq double %28, %5
  %or.cond = and i1 %27, %29
  br i1 %or.cond, label %.loopexit, label %30

30:                                               ; preds = %24
  %31 = getelementptr inbounds nuw i8, ptr %.0, i64 16
  %32 = load i64, ptr %31, align 8, !tbaa !16
  %33 = inttoptr i64 %32 to ptr
  %.not = icmp eq i64 %32, 0
  br i1 %.not, label %34, label %24, !llvm.loop !44

34:                                               ; preds = %30
  %35 = call ptr @lj_tab_newkey(ptr noundef %0, ptr noundef %1, ptr noundef nonnull %4)
  br label %.loopexit

.loopexit:                                        ; preds = %24, %34
  %.08 = phi ptr [ %35, %34 ], [ %.0, %24 ]
  call void @llvm.lifetime.end.p0(i64 8, ptr nonnull %4) #11
  ret ptr %.08
}